; Function Attrs: nounwind uwtable
define hidden zeroext i1 @Wayland_AllocSHMBuffer(i32 noundef %0, i32 noundef %1, ptr noundef %2) local_unnamed_addr #0 {
  %4 = alloca %struct.__sigset_t, align 8
  %5 = alloca %struct.__sigset_t, align 8
  %6 = alloca [4096 x i8], align 16
  %7 = tail call ptr @SDL_GetVideoDevice() #7
  %8 = getelementptr inbounds nuw i8, ptr %7, i64 1656
  %9 = load ptr, ptr %8, align 8
  %.not = icmp eq ptr %2, null
  br i1 %.not, label %10, label %12

10:                                               ; preds = %3
  %11 = tail call zeroext i1 (ptr, ...) @SDL_SetError_REAL(ptr noundef nonnull @.str, ptr noundef nonnull @.str.1) #7
  br label %77

12:                                               ; preds = %3
  %13 = shl nsw i32 %0, 2
  %14 = mul nsw i32 %13, %1
  %15 = getelementptr inbounds nuw i8, ptr %2, i64 16
  store i32 %14, ptr %15, align 8
  %16 = sext i32 %14 to i64
  %17 = tail call i32 @memfd_create(ptr noundef nonnull @.str.4, i32 noundef 3) #7
  %18 = icmp sgt i32 %17, -1
  br i1 %18, label %19, label %21

19:                                               ; preds = %12
  %20 = tail call i32 (i32, i32, ...) @fcntl(i32 noundef %17, i32 noundef 1033, i32 noundef 3) #7
  br label %30

21:                                               ; preds = %12
  call void @llvm.lifetime.start.p0(i64 4096, ptr nonnull %6) #7
  %22 = tail call ptr @SDL_getenv_REAL(ptr noundef nonnull @.str.5) #7
  %.not.i = icmp eq ptr %22, null
  br i1 %.not.i, label %.thread.i, label %23

23:                                               ; preds = %21
  %24 = call i64 @SDL_strlcpy_REAL(ptr noundef nonnull %6, ptr noundef nonnull %22, i64 noundef 4096) #7
  %25 = call i64 @SDL_strlcat_REAL(ptr noundef nonnull %6, ptr noundef nonnull @CreateTempFD.template, i64 noundef 4096) #7
  %26 = call i32 @mkostemp(ptr noundef nonnull %6, i32 noundef 524288) #7
  %27 = icmp slt i32 %26, 0
  br i1 %27, label %.thread.i, label %28

.thread.i:                                        ; preds = %23, %21
  call void @llvm.lifetime.end.p0(i64 4096, ptr nonnull %6) #7
  br label %46

28:                                               ; preds = %23
  %29 = call i32 @unlink(ptr noundef nonnull %6) #7
  call void @llvm.lifetime.end.p0(i64 4096, ptr nonnull %6) #7
  br label %30

30:                                               ; preds = %28, %19
  %.011.i = phi i32 [ %17, %19 ], [ %26, %28 ]
  call void @llvm.lifetime.start.p0(i64 128, ptr nonnull %4) #7
  call void @llvm.lifetime.start.p0(i64 128, ptr nonnull %5) #7
  %31 = call i32 @sigemptyset(ptr noundef nonnull %4) #7
  %32 = call i32 @sigaddset(ptr noundef nonnull %4, i32 noundef 14) #7
  %33 = call i32 @sigprocmask(i32 noundef 0, ptr noundef nonnull %4, ptr noundef nonnull %5) #7
  br label %34

34:                                               ; preds = %34, %30
  %35 = call i32 @posix_fallocate(i32 noundef %.011.i, i64 noundef 0, i64 noundef range(i64 -2147483648, 2147483648) %16) #7
  %36 = icmp eq i32 %35, 4
  br i1 %36, label %34, label %37, !llvm.loop !3

37:                                               ; preds = %34
  %38 = call i32 @sigprocmask(i32 noundef 2, ptr noundef nonnull %5, ptr noundef null) #7
  switch i32 %35, label %39 [
    i32 0, label %SetTempFileSize.exit.thread.i
    i32 22, label %SetTempFileSize.exit.i
  ]

SetTempFileSize.exit.thread.i:                    ; preds = %37
  call void @llvm.lifetime.end.p0(i64 128, ptr nonnull %5) #7
  call void @llvm.lifetime.end.p0(i64 128, ptr nonnull %4) #7
  br label %CreateTempFD.exit

39:                                               ; preds = %37
  %40 = tail call ptr @__errno_location() #8
  %41 = load i32, ptr %40, align 4
  %.not8.i.i = icmp eq i32 %41, 95
  br i1 %.not8.i.i, label %SetTempFileSize.exit.i, label %SetTempFileSize.exit.thread21.i

SetTempFileSize.exit.thread21.i:                  ; preds = %39
  call void @llvm.lifetime.end.p0(i64 128, ptr nonnull %5) #7
  call void @llvm.lifetime.end.p0(i64 128, ptr nonnull %4) #7
  br label %44

SetTempFileSize.exit.i:                           ; preds = %39, %37
  %42 = call i32 @ftruncate(i32 noundef %.011.i, i64 noundef range(i64 -2147483648, 2147483648) %16) #7
  %43 = icmp sgt i32 %42, -1
  call void @llvm.lifetime.end.p0(i64 128, ptr nonnull %5) #7
  call void @llvm.lifetime.end.p0(i64 128, ptr nonnull %4) #7
  br i1 %43, label %CreateTempFD.exit, label %44

44:                                               ; preds = %SetTempFileSize.exit.i, %SetTempFileSize.exit.thread21.i
  %45 = call i32 @close(i32 noundef %.011.i) #7
  br label %46

46:                                               ; preds = %44, %.thread.i
  %47 = call zeroext i1 (ptr, ...) @SDL_SetError_REAL(ptr noundef nonnull @.str.2) #7
  br label %77

CreateTempFD.exit:                                ; preds = %SetTempFileSize.exit.i, %SetTempFileSize.exit.thread.i
  %48 = load i32, ptr %15, align 8
  %49 = sext i32 %48 to i64
  %50 = call ptr @mmap(ptr noundef null, i64 noundef %49, i32 noundef 3, i32 noundef 1, i32 noundef %.011.i, i64 noundef 0) #7
  %51 = getelementptr inbounds nuw i8, ptr %2, i64 8
  store ptr %50, ptr %51, align 8
  %52 = icmp eq ptr %50, inttoptr (i64 -1 to ptr)
  br i1 %52, label %53, label %56

53:                                               ; preds = %CreateTempFD.exit
  store ptr null, ptr %51, align 8
  %54 = call i32 @close(i32 noundef %.011.i) #7
  %55 = call zeroext i1 (ptr, ...) @SDL_SetError_REAL(ptr noundef nonnull @.str.3) #7
  br label %77

56:                                               ; preds = %CreateTempFD.exit
  %57 = getelementptr inbounds nuw i8, ptr %9, i64 40
  %58 = load ptr, ptr %57, align 8
  %59 = load i32, ptr %15, align 8
  %60 = load ptr, ptr @WAYLAND_wl_proxy_marshal_flags, align 8
  %61 = load ptr, ptr @WAYLAND_wl_shm_pool_interface, align 8
  %62 = load ptr, ptr @WAYLAND_wl_proxy_get_version, align 8
  %63 = call i32 %62(ptr noundef %58) #7
  %64 = call ptr (ptr, i32, ptr, i32, i32, ...) %60(ptr noundef %58, i32 noundef 0, ptr noundef %61, i32 noundef %63, i32 noundef 0, ptr noundef null, i32 noundef range(i32 0, -2147483648) %.011.i, i32 noundef %59) #7
  %65 = load ptr, ptr @WAYLAND_wl_proxy_marshal_flags, align 8
  %66 = load ptr, ptr @WAYLAND_wl_buffer_interface, align 8
  %67 = load ptr, ptr @WAYLAND_wl_proxy_get_version, align 8
  %68 = call i32 %67(ptr noundef %64) #7
  %69 = call ptr (ptr, i32, ptr, i32, i32, ...) %65(ptr noundef %64, i32 noundef 0, ptr noundef %66, i32 noundef %68, i32 noundef 0, ptr noundef null, i32 noundef 0, i32 noundef %0, i32 noundef %1, i32 noundef %13, i32 noundef 0) #7
  store ptr %69, ptr %2, align 8
  %70 = load ptr, ptr @WAYLAND_wl_proxy_add_listener, align 8
  %71 = call i32 %70(ptr noundef %69, ptr noundef nonnull @buffer_listener, ptr noundef nonnull %2) #7
  %72 = load ptr, ptr @WAYLAND_wl_proxy_marshal_flags, align 8
  %73 = load ptr, ptr @WAYLAND_wl_proxy_get_version, align 8
  %74 = call i32 %73(ptr noundef %64) #7
  %75 = call ptr (ptr, i32, ptr, i32, i32, ...) %72(ptr noundef %64, i32 noundef 1, ptr noundef null, i32 noundef %74, i32 noundef 1) #7
  %76 = call i32 @close(i32 noundef %.011.i) #7
  br label %77

77:                                               ; preds = %46, %53, %56, %10
  %.0 = phi i1 [ %11, %10 ], [ %47, %46 ], [ %55, %53 ], [ true, %56 ]
  ret i1 %.0
}